Certificate:
    Data:
        Version: 3 (0x2)
        Serial Number: 4225 (0x1081)
    Signature Algorithm: sha1WithRSAEncryption
        Issuer: C=IN, ST=Maharastra, L=Pune, O=BTTV, OU=BTTVBNI, CN=testenvs.vision.bt.com/emailAddress=bttv.test.environments.support@bt.com
        Validity
            Not Before: Apr 15 13:32:18 2019 GMT
            Not After : Apr 14 13:32:18 2022 GMT
        Subject: C=GB, ST=London, O=OrgName, OU=OrgUnitName, CN=myorganization.co.uk
        Subject Public Key Info:
            Public Key Algorithm: rsaEncryption
                Public-Key: (2048 bit)
                Modulus:
                    00:c3:a5:c6:5f:24:25:8d:a5:02:ef:ab:0a:d5:dd:
                    1a:62:8a:3d:38:70:c6:72:17:e1:46:a4:75:eb:ff:
                    58:bd:93:a3:3a:03:aa:62:16:16:ac:cc:9c:b7:9a:
                    1a:20:26:de:af:06:ff:a2:cd:cb:8c:37:60:a3:f8:
                    d5:7b:d5:9f:dc:f0:ce:70:4f:5e:58:17:bf:4c:c7:
                    21:d6:1d:b2:94:46:d2:cb:62:37:00:2c:e9:cb:64:
                    80:6b:f4:ca:36:f1:50:76:1a:34:75:0e:a4:00:cd:
                    e7:1e:88:f9:e5:dc:d6:88:ee:a8:3d:0f:ff:b9:c6:
                    b0:c7:9c:30:e1:4b:52:3a:50:d6:e5:34:e3:c6:03:
                    4e:24:68:e6:57:ca:9e:52:d7:b5:de:b4:08:13:e1:
                    e9:26:7f:89:be:9e:85:0d:21:14:b3:58:e5:4e:db:
                    c6:12:f7:de:d6:be:e9:be:8e:a0:27:25:64:d8:4e:
                    8a:f2:35:ce:91:35:bc:db:5f:0f:e6:e6:40:c2:f1:
                    15:f3:e3:9a:f3:4f:95:b0:19:cc:c3:93:a9:dd:43:
                    5a:ba:7e:93:af:f5:64:5f:76:1d:30:57:b8:83:cb:
                    26:8f:38:d7:84:79:a2:fd:20:5a:96:22:d5:11:b4:
                    96:bf:d8:80:3a:1d:f3:76:f5:00:aa:14:0b:f8:01:
                    f0:bf
                Exponent: 65537 (0x10001)
        X509v3 extensions:
            X509v3 Basic Constraints: 
                CA:FALSE
            Netscape Comment: 
                OpenSSL Generated Certificate
            X509v3 Subject Key Identifier: 
                EE:E6:89:A2:1B:56:BF:02:B8:87:58:8E:61:AA:58:10:91:1E:8E:43
            X509v3 Authority Key Identifier: 
                keyid:97:D1:64:31:45:7A:91:6E:D2:D3:C6:A7:72:16:FB:FD:19:89:E5:55

    Signature Algorithm: sha1WithRSAEncryption
         ab:ae:75:74:d5:ed:44:97:fe:a1:46:94:ee:51:68:5d:db:1a:
         ef:74:24:f5:5c:27:90:f1:59:f1:b4:dd:97:c4:49:69:95:37:
         66:ca:55:69:cc:63:07:71:29:5c:11:b2:a7:b4:ff:cd:87:2e:
         33:58:27:d3:3f:be:07:7f:a1:29:af:c8:0a:88:a7:4b:cf:3f:
         3c:07:1c:59:a2:ce:12:e1:6b:8f:47:48:3a:e0:c3:1f:37:6d:
         c0:d4:a6:4e:60:93:08:04:e4:69:07:7f:1f:9e:38:c9:c5:a9:
         59:6c:fe:8d:74:52:1e:8f:01:6b:99:1d:9c:90:b9:74:3a:92:
         c1:a9:84:b3:37:9c:3e:42:a1:39:4f:6e:8f:43:c4:f7:90:0b:
         6a:08:74:59:9c:4f:c3:a7:d7:03:9d:97:70:d3:86:b3:8e:79:
         ab:19:73:24:5e:3f:2d:42:04:f6:37:e1:98:b9:88:61:27:51:
         84:3f:1f:3e:e9:35:f2:64:1b:77:1f:5d:ab:28:ad:00:f3:a1:
         52:c0:7e:c7:80:0b:0b:fb:14:fd:4f:a9:c7:40:d5:40:1a:aa:
         d4:88:ef:24:4c:36:1a:52:39:bd:46:06:3c:ad:5f:27:b6:d9:
         5d:ae:27:29:8a:31:3e:28:14:aa:ae:6e:da:c3:8c:a2:9c:0e:
         f1:3e:75:26:7a:05:3d:1e:35:c4:4d:99:13:75:17:7d:4f:e0:
         40:8f:b4:f0:15:95:b1:2e:f3:bd:96:66:51:89:b3:72:b3:c8:
         2d:10:4f:2a:d4:62:78:0c:27:89:bd:a8:df:5b:fc:50:5b:79:
         a7:a1:80:de:26:81:22:69:2b:0c:6b:a5:05:00:c0:5f:b7:78:
         51:bb:5f:6b:d7:63:58:8c:40:4e:28:af:06:cb:55:72:99:91:
         3f:20:56:e7:b6:f3:33:75:99:e6:ae:f8:af:bb:fa:8c:06:c5:
         42:42:7d:95:b6:30:81:76:b1:37:33:71:3b:d6:a7:46:21:b6:
         28:a1:63:db:be:57:70:7e:77:5e:88:db:01:c9:ea:f2:d1:68:
         0d:cd:1b:81:58:83:3d:e9:37:7a:4b:3a:b0:d1:84:66:db:be:
         f4:10:47:21:62:ab:dd:d5:b4:09:56:2c:ae:91:9b:16:71:31:
         60:e7:38:17:b0:ce:54:0c:79:f3:ff:ce:1f:08:f8:17:7c:85:
         d3:6a:30:3b:fd:f8:ee:74:fb:18:9b:e8:03:f2:f2:a2:27:d0:
         e1:af:e7:99:0b:38:45:c2:01:75:36:dd:36:15:1f:08:03:90:
         6b:fc:e9:c1:df:04:ba:db:0a:2f:85:2a:6c:7d:8d:6a:b8:c0:
         76:e4:26:6b:06:aa:14:25
-----BEGIN CERTIFICATE-----
MIIFBjCCAu6gAwIBAgICEIEwDQYJKoZIhvcNAQEFBQAwgakxCzAJBgNVBAYTAklO
MRMwEQYDVQQIDApNYWhhcmFzdHJhMQ0wCwYDVQQHDARQdW5lMQ0wCwYDVQQKDARC
VFRWMRAwDgYDVQQLDAdCVFRWQk5JMR8wHQYDVQQDDBZ0ZXN0ZW52cy52aXNpb24u
YnQuY29tMTQwMgYJKoZIhvcNAQkBFiVidHR2LnRlc3QuZW52aXJvbm1lbnRzLnN1
cHBvcnRAYnQuY29tMB4XDTE5MDQxNTEzMzIxOFoXDTIyMDQxNDEzMzIxOFowZTEL
MAkGA1UEBhMCR0IxDzANBgNVBAgMBkxvbmRvbjEQMA4GA1UECgwHT3JnTmFtZTEU
MBIGA1UECwwLT3JnVW5pdE5hbWUxHTAbBgNVBAMMFG15b3JnYW5pemF0aW9uLmNv
LnVrMIIBIjANBgkqhkiG9w0BAQEFAAOCAQ8AMIIBCgKCAQEAw6XGXyQljaUC76sK
1d0aYoo9OHDGchfhRqR16/9YvZOjOgOqYhYWrMyct5oaICberwb/os3LjDdgo/jV
e9Wf3PDOcE9eWBe/TMch1h2ylEbSy2I3ACzpy2SAa/TKNvFQdho0dQ6kAM3nHoj5
5dzWiO6oPQ//ucawx5ww4UtSOlDW5TTjxgNOJGjmV8qeUte13rQIE+HpJn+Jvp6F
DSEUs1jlTtvGEvfe1r7pvo6gJyVk2E6K8jXOkTW8218P5uZAwvEV8+Oa80+VsBnM
w5Op3UNaun6Tr/VkX3YdMFe4g8smjzjXhHmi/SBaliLVEbSWv9iAOh3zdvUAqhQL
+AHwvwIDAQABo3sweTAJBgNVHRMEAjAAMCwGCWCGSAGG+EIBDQQfFh1PcGVuU1NM
IEdlbmVyYXRlZCBDZXJ0aWZpY2F0ZTAdBgNVHQ4EFgQU7uaJohtWvwK4h1iOYapY
EJEejkMwHwYDVR0jBBgwFoAUl9FkMUV6kW7S08anchb7/RmJ5VUwDQYJKoZIhvcN
AQEFBQADggIBAKuudXTV7USX/qFGlO5RaF3bGu90JPVcJ5DxWfG03ZfESWmVN2bK
VWnMYwdxKVwRsqe0/82HLjNYJ9M/vgd/oSmvyAqIp0vPPzwHHFmizhLha49HSDrg
wx83bcDUpk5gkwgE5GkHfx+eOMnFqVls/o10Uh6PAWuZHZyQuXQ6ksGphLM3nD5C
oTlPbo9DxPeQC2oIdFmcT8On1wOdl3DThrOOeasZcyRePy1CBPY34Zi5iGEnUYQ/
Hz7pNfJkG3cfXasorQDzoVLAfseACwv7FP1PqcdA1UAaqtSI7yRMNhpSOb1GBjyt
Xye22V2uJymKMT4oFKqubtrDjKKcDvE+dSZ6BT0eNcRNmRN1F31P4ECPtPAVlbEu
872WZlGJs3KzyC0QTyrUYngMJ4m9qN9b/FBbeaehgN4mgSJpKwxrpQUAwF+3eFG7
X2vXY1iMQE4orwbLVXKZkT8gVue28zN1meau+K+7+owGxUJCfZW2MIF2sTczcTvW
p0YhtiihY9u+V3B+d16I2wHJ6vLRaA3NG4FYgz3pN3pLOrDRhGbbvvQQRyFiq93V
tAlWLK6RmxZxMWDnOBewzlQMefP/zh8I+Bd8hdNqMDv9+O50+xib6APy8qIn0OGv
55kLOEXCAXU23TYVHwgDkGv86cHfBLrbCi+FKmx9jWq4wHbkJmsGqhQl
-----END CERTIFICATE-----
